target datalayout = "e-m:e-p270:32:32-p271:32:32-p272:64:64-i64:64-i128:128-f80:128-n8:16:32:64-S128"
target triple = "x86_64-pc-linux-gnu"

%struct.ggml_tensor = type { i32, ptr, [4 x i64], [4 x i64], i32, [16 x i32], i32, [10 x ptr], ptr, i64, ptr, [64 x i8], ptr, [8 x i8] }

@.str.12 = private unnamed_addr constant [113 x i8] c"generated/home/dtcxzyw/WorkSpace/Projects/compilers/llvm-opt-benchmark/bench/llama.cpp/llama.cpp/ggml/src/ggml.c\00", align 1
@.str.13 = private unnamed_addr constant [23 x i8] c"GGML_ASSERT(%s) failed\00", align 1
@.str.44 = private unnamed_addr constant [39 x i8] c"ggml_nelements(a) == (ne0*ne1*ne2*ne3)\00", align 1
@.str.45 = private unnamed_addr constant [10 x i8] c"%s (cont)\00", align 1

; Function Attrs: nounwind uwtable
define ptr @ggml_new_tensor(ptr noundef %0, i32 noundef %1, i32 noundef %2, ptr noundef %3) #5 {
  %5 = alloca ptr, align 8
  %6 = alloca i32, align 4
  %7 = alloca i32, align 4
  %8 = alloca ptr, align 8
  store ptr %0, ptr %5, align 8, !tbaa !48
  store i32 %1, ptr %6, align 4, !tbaa !8
  store i32 %2, ptr %7, align 4, !tbaa !8
  store ptr %3, ptr %8, align 8, !tbaa !88
  %9 = load ptr, ptr %5, align 8, !tbaa !48
  %10 = load i32, ptr %6, align 4, !tbaa !8
  %11 = load i32, ptr %7, align 4, !tbaa !8
  %12 = load ptr, ptr %8, align 8, !tbaa !88
  %13 = call ptr @ggml_new_tensor_impl(ptr noundef %9, i32 noundef %10, i32 noundef %11, ptr noundef %12, ptr noundef null, i64 noundef 0)
  ret ptr %13
}

; Function Attrs: nounwind uwtable
define ptr @ggml_new_tensor_4d(ptr noundef %0, i32 noundef %1, i64 noundef %2, i64 noundef %3, i64 noundef %4, i64 noundef %5) #5 {
  %7 = alloca ptr, align 8
  %8 = alloca i32, align 4
  %9 = alloca i64, align 8
  %10 = alloca i64, align 8
  %11 = alloca i64, align 8
  %12 = alloca i64, align 8
  %13 = alloca [4 x i64], align 16
  store ptr %0, ptr %7, align 8, !tbaa !48
  store i32 %1, ptr %8, align 4, !tbaa !8
  store i64 %2, ptr %9, align 8, !tbaa !19
  store i64 %3, ptr %10, align 8, !tbaa !19
  store i64 %4, ptr %11, align 8, !tbaa !19
  store i64 %5, ptr %12, align 8, !tbaa !19
  call void @llvm.lifetime.start.p0(i64 32, ptr %13) #14
  %14 = load i64, ptr %9, align 8, !tbaa !19
  store i64 %14, ptr %13, align 8, !tbaa !19
  %15 = getelementptr inbounds i64, ptr %13, i64 1
  %16 = load i64, ptr %10, align 8, !tbaa !19
  store i64 %16, ptr %15, align 8, !tbaa !19
  %17 = getelementptr inbounds i64, ptr %13, i64 2
  %18 = load i64, ptr %11, align 8, !tbaa !19
  store i64 %18, ptr %17, align 8, !tbaa !19
  %19 = getelementptr inbounds i64, ptr %13, i64 3
  %20 = load i64, ptr %12, align 8, !tbaa !19
  store i64 %20, ptr %19, align 8, !tbaa !19
  %21 = load ptr, ptr %7, align 8, !tbaa !48
  %22 = load i32, ptr %8, align 4, !tbaa !8
  %23 = getelementptr inbounds [4 x i64], ptr %13, i64 0, i64 0
  %24 = call ptr @ggml_new_tensor(ptr noundef %21, i32 noundef %22, i32 noundef 4, ptr noundef %23)
  call void @llvm.lifetime.end.p0(i64 32, ptr %13) #14
  ret ptr %24
}

; Function Attrs: nounwind uwtable
define i64 @ggml_nelements(ptr noundef %0) #5 {
  %2 = alloca ptr, align 8
  store ptr %0, ptr %2, align 8, !tbaa !54
  %3 = load ptr, ptr %2, align 8, !tbaa !54
  %4 = getelementptr inbounds nuw %struct.ggml_tensor, ptr %3, i32 0, i32 2
  %5 = getelementptr inbounds [4 x i64], ptr %4, i64 0, i64 0
  %6 = load i64, ptr %5, align 8, !tbaa !19
  %7 = load ptr, ptr %2, align 8, !tbaa !54
  %8 = getelementptr inbounds nuw %struct.ggml_tensor, ptr %7, i32 0, i32 2
  %9 = getelementptr inbounds [4 x i64], ptr %8, i64 0, i64 1
  %10 = load i64, ptr %9, align 8, !tbaa !19
  %11 = mul nsw i64 %6, %10
  %12 = load ptr, ptr %2, align 8, !tbaa !54
  %13 = getelementptr inbounds nuw %struct.ggml_tensor, ptr %12, i32 0, i32 2
  %14 = getelementptr inbounds [4 x i64], ptr %13, i64 0, i64 2
  %15 = load i64, ptr %14, align 8, !tbaa !19
  %16 = mul nsw i64 %11, %15
  %17 = load ptr, ptr %2, align 8, !tbaa !54
  %18 = getelementptr inbounds nuw %struct.ggml_tensor, ptr %17, i32 0, i32 2
  %19 = getelementptr inbounds [4 x i64], ptr %18, i64 0, i64 3
  %20 = load i64, ptr %19, align 8, !tbaa !19
  %21 = mul nsw i64 %16, %20
  ret i64 %21
}

; Function Attrs: nounwind uwtable
define ptr @ggml_cont_4d(ptr noundef %0, ptr noundef %1, i64 noundef %2, i64 noundef %3, i64 noundef %4, i64 noundef %5) #5 {
  %7 = alloca ptr, align 8
  %8 = alloca ptr, align 8
  %9 = alloca i64, align 8
  %10 = alloca i64, align 8
  %11 = alloca i64, align 8
  %12 = alloca i64, align 8
  %13 = alloca ptr, align 8
  store ptr %0, ptr %7, align 8, !tbaa !48
  store ptr %1, ptr %8, align 8, !tbaa !54
  store i64 %2, ptr %9, align 8, !tbaa !19
  store i64 %3, ptr %10, align 8, !tbaa !19
  store i64 %4, ptr %11, align 8, !tbaa !19
  store i64 %5, ptr %12, align 8, !tbaa !19
  %14 = load ptr, ptr %8, align 8, !tbaa !54
  %15 = call i64 @ggml_nelements(ptr noundef %14)
  %16 = load i64, ptr %9, align 8, !tbaa !19
  %17 = load i64, ptr %10, align 8, !tbaa !19
  %18 = mul nsw i64 %16, %17
  %19 = load i64, ptr %11, align 8, !tbaa !19
  %20 = mul nsw i64 %18, %19
  %21 = load i64, ptr %12, align 8, !tbaa !19
  %22 = mul nsw i64 %20, %21
  %23 = icmp eq i64 %15, %22
  br i1 %23, label %25, label %24

24:                                               ; preds = %6
  call void (ptr, i32, ptr, ...) @ggml_abort(ptr noundef @.str.12, i32 noundef 3005, ptr noundef @.str.13, ptr noundef @.str.44) #18
  unreachable

25:                                               ; preds = %6
  call void @llvm.lifetime.start.p0(i64 8, ptr %13) #14
  %26 = load ptr, ptr %7, align 8, !tbaa !48
  %27 = load ptr, ptr %8, align 8, !tbaa !54
  %28 = getelementptr inbounds nuw %struct.ggml_tensor, ptr %27, i32 0, i32 0
  %29 = load i32, ptr %28, align 8, !tbaa !56
  %30 = load i64, ptr %9, align 8, !tbaa !19
  %31 = load i64, ptr %10, align 8, !tbaa !19
  %32 = load i64, ptr %11, align 8, !tbaa !19
  %33 = load i64, ptr %12, align 8, !tbaa !19
  %34 = call ptr @ggml_new_tensor_4d(ptr noundef %26, i32 noundef %29, i64 noundef %30, i64 noundef %31, i64 noundef %32, i64 noundef %33)
  store ptr %34, ptr %13, align 8, !tbaa !54
  %35 = load ptr, ptr %13, align 8, !tbaa !54
  %36 = load ptr, ptr %8, align 8, !tbaa !54
  %37 = getelementptr inbounds nuw %struct.ggml_tensor, ptr %36, i32 0, i32 11
  %38 = getelementptr inbounds [64 x i8], ptr %37, i64 0, i64 0
  %39 = call ptr (ptr, ptr, ...) @ggml_format_name(ptr noundef %35, ptr noundef @.str.45, ptr noundef %38)
  %40 = load ptr, ptr %13, align 8, !tbaa !54
  %41 = getelementptr inbounds nuw %struct.ggml_tensor, ptr %40, i32 0, i32 4
  store i32 32, ptr %41, align 8, !tbaa !68
  %42 = load ptr, ptr %8, align 8, !tbaa !54
  %43 = load ptr, ptr %13, align 8, !tbaa !54
  %44 = getelementptr inbounds nuw %struct.ggml_tensor, ptr %43, i32 0, i32 7
  %45 = getelementptr inbounds [10 x ptr], ptr %44, i64 0, i64 0
  store ptr %42, ptr %45, align 8, !tbaa !54
  %46 = load ptr, ptr %13, align 8, !tbaa !54
  call void @llvm.lifetime.end.p0(i64 8, ptr %13) #14
  ret ptr %46
}

; Function Attrs: nounwind uwtable
define ptr @ggml_cont_3d(ptr noundef %0, ptr noundef %1, i64 noundef %2, i64 noundef %3, i64 noundef %4) #5 {
  %6 = alloca ptr, align 8
  %7 = alloca ptr, align 8
  %8 = alloca i64, align 8
  %9 = alloca i64, align 8
  %10 = alloca i64, align 8
  store ptr %0, ptr %6, align 8, !tbaa !48
  store ptr %1, ptr %7, align 8, !tbaa !54
  store i64 %2, ptr %8, align 8, !tbaa !19
  store i64 %3, ptr %9, align 8, !tbaa !19
  store i64 %4, ptr %10, align 8, !tbaa !19
  %11 = load ptr, ptr %6, align 8, !tbaa !48
  %12 = load ptr, ptr %7, align 8, !tbaa !54
  %13 = load i64, ptr %8, align 8, !tbaa !19
  %14 = load i64, ptr %9, align 8, !tbaa !19
  %15 = load i64, ptr %10, align 8, !tbaa !19
  %16 = call ptr @ggml_cont_4d(ptr noundef %11, ptr noundef %12, i64 noundef %13, i64 noundef %14, i64 noundef %15, i64 noundef 1)
  ret ptr %16
}