; Function Attrs: nounwind uwtable
define noundef ptr @ggml_cont_3d(ptr noundef captures(none) %0, ptr noundef %1, i64 noundef %2, i64 noundef %3, i64 noundef %4) local_unnamed_addr #4 {
  %6 = alloca [4 x i64], align 16
  %7 = getelementptr inbounds nuw i8, ptr %1, i64 16
  %8 = load i64, ptr %7, align 8, !tbaa !39
  %9 = getelementptr inbounds nuw i8, ptr %1, i64 24
  %10 = load i64, ptr %9, align 8, !tbaa !39
  %11 = mul nsw i64 %10, %8
  %12 = getelementptr inbounds nuw i8, ptr %1, i64 32
  %13 = load i64, ptr %12, align 8, !tbaa !39
  %14 = mul nsw i64 %11, %13
  %15 = getelementptr inbounds nuw i8, ptr %1, i64 40
  %16 = load i64, ptr %15, align 8, !tbaa !39
  %17 = mul nsw i64 %14, %16
  %18 = mul nsw i64 %3, %2
  %19 = mul nsw i64 %18, %4
  %20 = icmp eq i64 %17, %19
  br i1 %20, label %ggml_cont_4d.exit, label %21

21:                                               ; preds = %5
  tail call void (ptr, i32, ptr, ...) @ggml_abort(ptr noundef nonnull @.str.12, i32 noundef 3005, ptr noundef nonnull @.str.13, ptr noundef nonnull @.str.44) #47
  unreachable

ggml_cont_4d.exit:                                ; preds = %5
  %22 = load i32, ptr %1, align 8, !tbaa !40
  call void @llvm.lifetime.start.p0(i64 32, ptr nonnull %6) #42
  store i64 %2, ptr %6, align 16, !tbaa !39
  %23 = getelementptr inbounds nuw i8, ptr %6, i64 8
  store i64 %3, ptr %23, align 8, !tbaa !39
  %24 = getelementptr inbounds nuw i8, ptr %6, i64 16
  store i64 %4, ptr %24, align 16, !tbaa !39
  %25 = getelementptr inbounds nuw i8, ptr %6, i64 24
  store i64 1, ptr %25, align 8, !tbaa !39
  %26 = call fastcc noundef ptr @ggml_new_tensor_impl(ptr noundef %0, i32 noundef %22, i32 noundef 4, ptr noundef nonnull readonly %6, ptr noundef null, i64 noundef 0)
  call void @llvm.lifetime.end.p0(i64 32, ptr nonnull %6) #42
  %27 = getelementptr inbounds nuw i8, ptr %1, i64 256
  %28 = tail call ptr (ptr, ptr, ...) @ggml_format_name(ptr noundef %26, ptr noundef nonnull @.str.45, ptr noundef nonnull %27)
  %29 = getelementptr inbounds nuw i8, ptr %26, i64 80
  store i32 32, ptr %29, align 8, !tbaa !55
  %30 = getelementptr inbounds nuw i8, ptr %26, i64 152
  store ptr %1, ptr %30, align 8, !tbaa !81
  ret ptr %26
}